; Function Attrs: nounwind sspstrong uwtable
define internal ptr @qobject_input_next_list(ptr noundef readonly captures(none) %v, ptr noundef writeonly captures(none) %tail, i64 noundef %size) #0 {
entry:
  %stack = getelementptr inbounds nuw i8, ptr %v, i64 232
  %0 = load ptr, ptr %stack, align 8
  %tobool.not = icmp eq ptr %0, null
  br i1 %tobool.not, label %if.else, label %land.lhs.true

land.lhs.true:                                    ; preds = %entry
  %obj = getelementptr inbounds nuw i8, ptr %0, i64 8
  %1 = load ptr, ptr %obj, align 8
  %tobool.not.i = icmp eq ptr %1, null
  br i1 %tobool.not.i, label %if.else, label %land.lhs.true.i

land.lhs.true.i:                                  ; preds = %land.lhs.true
  %obj.val.i = load i32, ptr %1, align 8
  %2 = add i32 %obj.val.i, -1
  %or.cond.i.i = icmp ult i32 %2, 6
  br i1 %or.cond.i.i, label %qobject_type.exit.i, label %if.else.i.i

if.else.i.i:                                      ; preds = %land.lhs.true.i
  tail call void @__assert_fail(ptr noundef nonnull @.str.12, ptr noundef nonnull @.str.13, i32 noundef 126, ptr noundef nonnull @__PRETTY_FUNCTION__.qobject_type) #7
  unreachable

qobject_type.exit.i:                              ; preds = %land.lhs.true.i
  %cmp.i = icmp eq i32 %obj.val.i, 5
  br i1 %cmp.i, label %if.end, label %if.else

if.else:                                          ; preds = %qobject_type.exit.i, %land.lhs.true, %entry
  tail call void @__assert_fail(ptr noundef nonnull @.str.25, ptr noundef nonnull @.str.1, i32 noundef 347, ptr noundef nonnull @__PRETTY_FUNCTION__.qobject_input_next_list) #7
  unreachable

if.end:                                           ; preds = %qobject_type.exit.i
  %entry3 = getelementptr inbounds nuw i8, ptr %0, i64 32
  %3 = load ptr, ptr %entry3, align 8
  %tobool4.not = icmp eq ptr %3, null
  br i1 %tobool4.not, label %return, label %if.end6

if.end6:                                          ; preds = %if.end
  %call7 = tail call noalias ptr @g_malloc0(i64 noundef %size) #6
  store ptr %call7, ptr %tail, align 8
  br label %return

return:                                           ; preds = %if.end, %if.end6
  %retval.0 = phi ptr [ %call7, %if.end6 ], [ null, %if.end ]
  ret ptr %retval.0
}